target datalayout = "e-m:e-p270:32:32-p271:32:32-p272:64:64-i64:64-i128:128-f80:128-n8:16:32:64-S128"
target triple = "x86_64-pc-linux-gnu"

%struct._zval_struct = type { %union._zend_value, %union.anon, %union.anon.2 }
%union._zend_value = type { i64 }
%union.anon = type { i32 }
%union.anon.2 = type { i32 }
%struct._php_json_parser_methods = type { ptr, ptr, ptr, ptr, ptr, ptr, ptr, ptr }
%struct._php_json_parser = type { %struct._php_json_scanner, ptr, i32, i32, %struct._php_json_parser_methods }
%struct._php_json_scanner = type { ptr, ptr, ptr, ptr, ptr, ptr, ptr, %struct._zval_struct, i32, i32, i32, i32, i32, i32 }

; Function Attrs: nounwind uwtable
define internal i32 @php_json_parser_object_create(ptr noundef %0, ptr noundef %1) #0 {
  %3 = alloca ptr, align 8
  %4 = alloca ptr, align 8
  %5 = alloca ptr, align 8
  %6 = alloca ptr, align 8
  store ptr %0, ptr %3, align 8
  store ptr %1, ptr %4, align 8
  %7 = load ptr, ptr %3, align 8
  %8 = getelementptr inbounds %struct._php_json_parser, ptr %7, i32 0, i32 0
  %9 = getelementptr inbounds %struct._php_json_scanner, ptr %8, i32 0, i32 10
  %10 = load i32, ptr %9, align 8
  %11 = and i32 %10, 1
  %12 = icmp ne i32 %11, 0
  br i1 %12, label %13, label %23

13:                                               ; preds = %2
  br label %14

14:                                               ; preds = %13
  %15 = call ptr @_zend_new_array_0()
  store ptr %15, ptr %5, align 8
  %16 = load ptr, ptr %4, align 8
  store ptr %16, ptr %6, align 8
  %17 = load ptr, ptr %5, align 8
  %18 = load ptr, ptr %6, align 8
  %19 = getelementptr inbounds %struct._zval_struct, ptr %18, i32 0, i32 0
  store ptr %17, ptr %19, align 8
  %20 = load ptr, ptr %6, align 8
  %21 = getelementptr inbounds %struct._zval_struct, ptr %20, i32 0, i32 1
  store i32 775, ptr %21, align 8
  br label %22

22:                                               ; preds = %14
  br label %25

23:                                               ; preds = %2
  %24 = load ptr, ptr %4, align 8
  call void @object_init(ptr noundef %24)
  br label %25

25:                                               ; preds = %23, %22
  ret i32 0
}