; Function Attrs: nounwind uwtable
define internal noundef i32 @php_json_parser_object_create(ptr nocapture noundef readonly %0, ptr noundef %1) #0 {
  %3 = getelementptr inbounds i8, ptr %0, i64 80
  %4 = load i32, ptr %3, align 8
  %5 = and i32 %4, 1
  %.not = icmp eq i32 %5, 0
  br i1 %.not, label %9, label %6

6:                                                ; preds = %2
  %7 = tail call ptr @_zend_new_array_0() #12
  store ptr %7, ptr %1, align 8
  %8 = getelementptr inbounds i8, ptr %1, i64 8
  store i32 775, ptr %8, align 8
  br label %10

9:                                                ; preds = %2
  tail call void @object_init(ptr noundef %1) #12
  br label %10

10:                                               ; preds = %9, %6
  ret i32 0
}